; ModuleID = 'source-C-CXX/10/70.c'
source_filename = "source-C-CXX/10/70.c"
target datalayout = "e-m:e-p270:32:32-p271:32:32-p272:64:64-i64:64-f80:128-n8:16:32:64-S128"
target triple = "x86_64-pc-linux-gnu"

@__const.main.monthd = private unnamed_addr constant [12 x i32] [i32 31, i32 28, i32 31, i32 30, i32 31, i32 30, i32 31, i32 31, i32 30, i32 31, i32 30, i32 31], align 16
@.str = private unnamed_addr constant [9 x i8] c"%d %d %d\00", align 1
@.str.1 = private unnamed_addr constant [4 x i8] c"%d\0A\00", align 1
@.str.2 = private unnamed_addr constant [3 x i8] c"%d\00", align 1

; Function Attrs: nofree nounwind sspstrong uwtable
define dso_local i32 @main() local_unnamed_addr #0 {
  %1 = alloca i32, align 4
  %2 = alloca i32, align 4
  %3 = alloca i32, align 4
  %4 = bitcast i32* %1 to i8*
  call void @llvm.lifetime.start.p0i8(i64 4, i8* nonnull %4) #4
  %5 = bitcast i32* %2 to i8*
  call void @llvm.lifetime.start.p0i8(i64 4, i8* nonnull %5) #4
  %6 = bitcast i32* %3 to i8*
  call void @llvm.lifetime.start.p0i8(i64 4, i8* nonnull %6) #4
  %7 = call i32 (i8*, ...) @__isoc99_scanf(i8* getelementptr inbounds ([9 x i8], [9 x i8]* @.str, i64 0, i64 0), i32* nonnull %1, i32* nonnull %2, i32* nonnull %3)
  %8 = load i32, i32* %2, align 4, !tbaa !5
  %9 = icmp sgt i32 %8, 1
  br i1 %9, label %10, label %108

10:                                               ; preds = %0
  %11 = zext i32 %8 to i64
  %12 = add nsw i64 %11, -1
  %13 = icmp ult i64 %12, 8
  br i1 %13, label %96, label %14

14:                                               ; preds = %10
  %15 = and i64 %12, -8
  %16 = or i64 %15, 1
  %17 = add nsw i64 %15, -8
  %18 = lshr exact i64 %17, 3
  %19 = add nuw nsw i64 %18, 1
  %20 = and i64 %19, 3
  %21 = icmp ult i64 %17, 24
  br i1 %21, label %67, label %22

22:                                               ; preds = %14
  %23 = and i64 %19, 4611686018427387900
  br label %24

24:                                               ; preds = %24, %22
  %25 = phi i64 [ 0, %22 ], [ %64, %24 ]
  %26 = phi <4 x i32> [ zeroinitializer, %22 ], [ %62, %24 ]
  %27 = phi <4 x i32> [ zeroinitializer, %22 ], [ %63, %24 ]
  %28 = phi i64 [ %23, %22 ], [ %65, %24 ]
  %29 = getelementptr inbounds [12 x i32], [12 x i32]* @__const.main.monthd, i64 0, i64 %25
  %30 = bitcast i32* %29 to <4 x i32>*
  %31 = load <4 x i32>, <4 x i32>* %30, align 16, !tbaa !5
  %32 = getelementptr inbounds i32, i32* %29, i64 4
  %33 = bitcast i32* %32 to <4 x i32>*
  %34 = load <4 x i32>, <4 x i32>* %33, align 16, !tbaa !5
  %35 = add <4 x i32> %31, %26
  %36 = add <4 x i32> %34, %27
  %37 = or i64 %25, 8
  %38 = getelementptr inbounds [12 x i32], [12 x i32]* @__const.main.monthd, i64 0, i64 %37
  %39 = bitcast i32* %38 to <4 x i32>*
  %40 = load <4 x i32>, <4 x i32>* %39, align 16, !tbaa !5
  %41 = getelementptr inbounds i32, i32* %38, i64 4
  %42 = bitcast i32* %41 to <4 x i32>*
  %43 = load <4 x i32>, <4 x i32>* %42, align 16, !tbaa !5
  %44 = add <4 x i32> %40, %35
  %45 = add <4 x i32> %43, %36
  %46 = or i64 %25, 16
  %47 = getelementptr inbounds [12 x i32], [12 x i32]* @__const.main.monthd, i64 0, i64 %46
  %48 = bitcast i32* %47 to <4 x i32>*
  %49 = load <4 x i32>, <4 x i32>* %48, align 16, !tbaa !5
  %50 = getelementptr inbounds i32, i32* %47, i64 4
  %51 = bitcast i32* %50 to <4 x i32>*
  %52 = load <4 x i32>, <4 x i32>* %51, align 16, !tbaa !5
  %53 = add <4 x i32> %49, %44
  %54 = add <4 x i32> %52, %45
  %55 = or i64 %25, 24
  %56 = getelementptr inbounds [12 x i32], [12 x i32]* @__const.main.monthd, i64 0, i64 %55
  %57 = bitcast i32* %56 to <4 x i32>*
  %58 = load <4 x i32>, <4 x i32>* %57, align 16, !tbaa !5
  %59 = getelementptr inbounds i32, i32* %56, i64 4
  %60 = bitcast i32* %59 to <4 x i32>*
  %61 = load <4 x i32>, <4 x i32>* %60, align 16, !tbaa !5
  %62 = add <4 x i32> %58, %53
  %63 = add <4 x i32> %61, %54
  %64 = add nuw i64 %25, 32
  %65 = add i64 %28, -4
  %66 = icmp eq i64 %65, 0
  br i1 %66, label %67, label %24, !llvm.loop !9

67:                                               ; preds = %24, %14
  %68 = phi <4 x i32> [ undef, %14 ], [ %62, %24 ]
  %69 = phi <4 x i32> [ undef, %14 ], [ %63, %24 ]
  %70 = phi i64 [ 0, %14 ], [ %64, %24 ]
  %71 = phi <4 x i32> [ zeroinitializer, %14 ], [ %62, %24 ]
  %72 = phi <4 x i32> [ zeroinitializer, %14 ], [ %63, %24 ]
  %73 = icmp eq i64 %20, 0
  br i1 %73, label %90, label %74

74:                                               ; preds = %67, %74
  %75 = phi i64 [ %87, %74 ], [ %70, %67 ]
  %76 = phi <4 x i32> [ %85, %74 ], [ %71, %67 ]
  %77 = phi <4 x i32> [ %86, %74 ], [ %72, %67 ]
  %78 = phi i64 [ %88, %74 ], [ %20, %67 ]
  %79 = getelementptr inbounds [12 x i32], [12 x i32]* @__const.main.monthd, i64 0, i64 %75
  %80 = bitcast i32* %79 to <4 x i32>*
  %81 = load <4 x i32>, <4 x i32>* %80, align 16, !tbaa !5
  %82 = getelementptr inbounds i32, i32* %79, i64 4
  %83 = bitcast i32* %82 to <4 x i32>*
  %84 = load <4 x i32>, <4 x i32>* %83, align 16, !tbaa !5
  %85 = add <4 x i32> %81, %76
  %86 = add <4 x i32> %84, %77
  %87 = add nuw i64 %75, 8
  %88 = add i64 %78, -1
  %89 = icmp eq i64 %88, 0
  br i1 %89, label %90, label %74, !llvm.loop !12

90:                                               ; preds = %74, %67
  %91 = phi <4 x i32> [ %68, %67 ], [ %85, %74 ]
  %92 = phi <4 x i32> [ %69, %67 ], [ %86, %74 ]
  %93 = add <4 x i32> %92, %91
  %94 = call i32 @llvm.vector.reduce.add.v4i32(<4 x i32> %93)
  %95 = icmp eq i64 %12, %15
  br i1 %95, label %108, label %96

96:                                               ; preds = %10, %90
  %97 = phi i64 [ 1, %10 ], [ %16, %90 ]
  %98 = phi i32 [ 0, %10 ], [ %94, %90 ]
  br label %99

99:                                               ; preds = %96, %99
  %100 = phi i64 [ %106, %99 ], [ %97, %96 ]
  %101 = phi i32 [ %105, %99 ], [ %98, %96 ]
  %102 = add nsw i64 %100, -1
  %103 = getelementptr inbounds [12 x i32], [12 x i32]* @__const.main.monthd, i64 0, i64 %102
  %104 = load i32, i32* %103, align 4, !tbaa !5
  %105 = add nsw i32 %104, %101
  %106 = add nuw nsw i64 %100, 1
  %107 = icmp eq i64 %106, %11
  br i1 %107, label %108, label %99, !llvm.loop !14

108:                                              ; preds = %99, %90, %0
  %109 = phi i32 [ 0, %0 ], [ %94, %90 ], [ %105, %99 ]
  %110 = load i32, i32* %3, align 4, !tbaa !5
  %111 = add nsw i32 %110, %109
  %112 = load i32, i32* %1, align 4, !tbaa !5
  %113 = and i32 %112, 3
  %114 = srem i32 %112, 400
  %115 = or i32 %113, %114
  %116 = icmp eq i32 %115, 0
  br i1 %116, label %119, label %117

117:                                              ; preds = %108
  %118 = call i32 (i8*, ...) @printf(i8* nonnull dereferenceable(1) getelementptr inbounds ([4 x i8], [4 x i8]* @.str.1, i64 0, i64 0), i32 %111)
  br label %122

119:                                              ; preds = %108
  %120 = add nsw i32 %111, 1
  %121 = call i32 (i8*, ...) @printf(i8* nonnull dereferenceable(1) getelementptr inbounds ([3 x i8], [3 x i8]* @.str.2, i64 0, i64 0), i32 %120)
  br label %122

122:                                              ; preds = %119, %117
  call void @llvm.lifetime.end.p0i8(i64 4, i8* nonnull %6) #4
  call void @llvm.lifetime.end.p0i8(i64 4, i8* nonnull %5) #4
  call void @llvm.lifetime.end.p0i8(i64 4, i8* nonnull %4) #4
  ret i32 0
}

; Function Attrs: argmemonly mustprogress nofree nosync nounwind willreturn
declare void @llvm.lifetime.start.p0i8(i64 immarg, i8* nocapture) #1

; Function Attrs: nofree nounwind
declare noundef i32 @__isoc99_scanf(i8* nocapture noundef readonly, ...) local_unnamed_addr #2

; Function Attrs: nofree nounwind
declare noundef i32 @printf(i8* nocapture noundef readonly, ...) local_unnamed_addr #2

; Function Attrs: argmemonly mustprogress nofree nosync nounwind willreturn
declare void @llvm.lifetime.end.p0i8(i64 immarg, i8* nocapture) #1

; Function Attrs: nofree nosync nounwind readnone willreturn
declare i32 @llvm.vector.reduce.add.v4i32(<4 x i32>) #3


!llvm.module.flags = !{!0, !1, !2, !3}
!llvm.ident = !{!4}

!0 = !{i32 1, !"wchar_size", i32 4}
!1 = !{i32 7, !"PIC Level", i32 2}
!2 = !{i32 7, !"PIE Level", i32 2}
!3 = !{i32 7, !"uwtable", i32 1}
!4 = !{!"clang version 13.0.0"}
!5 = !{!6, !6, i64 0}
!6 = !{!"int", !7, i64 0}
!7 = !{!"omnipotent char", !8, i64 0}
!8 = !{!"Simple C/C++ TBAA"}
!9 = distinct !{!9, !10, !11}
!10 = !{!"llvm.loop.mustprogress"}
!11 = !{!"llvm.loop.isvectorized", i32 1}
!12 = distinct !{!12, !13}
!13 = !{!"llvm.loop.unroll.disable"}
!14 = distinct !{!14, !10, !15, !11}
!15 = !{!"llvm.loop.unroll.runtime.disable"}
